; Function Attrs: mustprogress nofree nounwind memory(readwrite, inaccessiblemem: read) uwtable
define noundef ptr @_ZN4ofbx10fromStringINS_6MatrixEEEPKcS3_S3_PT_(ptr noundef %0, ptr noundef %1, ptr nocapture noundef writeonly %2) local_unnamed_addr #14 {
  %4 = ptrtoint ptr %1 to i64
  br label %.lr.ph29.i

5:                                                ; preds = %.critedge.i
  %6 = add nuw nsw i32 %.028.i, 1
  %exitcond34.not.i = icmp eq i32 %6, 16
  br i1 %exitcond34.not.i, label %_ZN4ofbx10fromStringEPKcS1_Pdi.exit, label %.lr.ph29.i, !llvm.loop !14

.lr.ph29.i:                                       ; preds = %5, %3
  %.028.i = phi i32 [ %6, %5 ], [ 0, %3 ]
  %.01827.i = phi ptr [ %spec.select.i, %5 ], [ %0, %3 ]
  %.02026.i = phi ptr [ %8, %5 ], [ %2, %3 ]
  %7 = tail call double @atof(ptr noundef %.01827.i) #30
  store double %7, ptr %.02026.i, align 8
  %8 = getelementptr inbounds i8, ptr %.02026.i, i64 8
  %9 = icmp ult ptr %.01827.i, %1
  br i1 %9, label %.lr.ph.preheader.i, label %.critedge.i

.lr.ph.preheader.i:                               ; preds = %.lr.ph29.i
  %.0182732.i = ptrtoint ptr %.01827.i to i64
  %scevgep.i = getelementptr i8, ptr %.01827.i, i64 %4
  %10 = sub i64 0, %.0182732.i
  %scevgep33.i = getelementptr i8, ptr %scevgep.i, i64 %10
  %11 = load i8, ptr %.01827.i, align 1
  %.not.i3 = icmp eq i8 %11, 44
  br i1 %.not.i3, label %.critedge.i, label %.lr.ph

.lr.ph.i:                                         ; preds = %.lr.ph
  %12 = load i8, ptr %13, align 1
  %.not.i = icmp eq i8 %12, 44
  br i1 %.not.i, label %.critedge.i.loopexit, label %.lr.ph, !llvm.loop !15

.lr.ph:                                           ; preds = %.lr.ph.preheader.i, %.lr.ph.i
  %.121.i4 = phi ptr [ %13, %.lr.ph.i ], [ %.01827.i, %.lr.ph.preheader.i ]
  %13 = getelementptr inbounds i8, ptr %.121.i4, i64 1
  %exitcond.not.i = icmp eq ptr %13, %scevgep33.i
  br i1 %exitcond.not.i, label %.critedge.i.loopexit, label %.lr.ph.i, !llvm.loop !15

.critedge.i.loopexit:                             ; preds = %.lr.ph, %.lr.ph.i
  %.1.lcssa.i.ph = phi ptr [ %13, %.lr.ph.i ], [ %scevgep33.i, %.lr.ph ]
  %14 = icmp ult ptr %13, %1
  br label %.critedge.i

.critedge.i:                                      ; preds = %.critedge.i.loopexit, %.lr.ph.preheader.i, %.lr.ph29.i
  %.1.lcssa.i = phi ptr [ %.01827.i, %.lr.ph29.i ], [ %.01827.i, %.lr.ph.preheader.i ], [ %.1.lcssa.i.ph, %.critedge.i.loopexit ]
  %.lcssa.i = phi i1 [ false, %.lr.ph29.i ], [ true, %.lr.ph.preheader.i ], [ %14, %.critedge.i.loopexit ]
  %spec.select.idx.i = zext i1 %.lcssa.i to i64
  %spec.select.i = getelementptr inbounds i8, ptr %.1.lcssa.i, i64 %spec.select.idx.i
  %15 = icmp eq ptr %spec.select.i, %1
  br i1 %15, label %_ZN4ofbx10fromStringEPKcS1_Pdi.exit, label %5

_ZN4ofbx10fromStringEPKcS1_Pdi.exit:              ; preds = %5, %.critedge.i
  %.019.i = phi ptr [ %1, %.critedge.i ], [ %spec.select.i, %5 ]
  ret ptr %.019.i
}